; Function Attrs: null_pointer_is_valid sspstrong uwtable
define hidden i32 @mapi_dissect_struct_MoveFolder_req(ptr noundef %0, i32 noundef %1, ptr noundef %2, ptr noundef %3, ptr noundef %4, ptr noundef %5, i32 noundef %6, i32 %7) local_unnamed_addr #0 {
  %9 = alloca ptr, align 8
  %10 = getelementptr inbounds nuw i8, ptr %4, i64 26
  %11 = load i8, ptr %10, align 2, !range !9, !noundef !10
  store i8 1, ptr %10, align 2
  %.not = icmp eq ptr %3, null
  br i1 %.not, label %16, label %12

12:                                               ; preds = %8
  %13 = tail call ptr @proto_tree_add_item(ptr noundef nonnull %3, i32 noundef %6, ptr noundef %0, i32 noundef %1, i32 noundef -1, i32 noundef 0)
  %14 = load i32, ptr @ett_mapi_MoveFolder_req, align 4
  %15 = tail call ptr @proto_item_add_subtree(ptr noundef %13, i32 noundef %14)
  br label %16

16:                                               ; preds = %12, %8
  %.044 = phi ptr [ %15, %12 ], [ null, %8 ]
  %.0 = phi ptr [ %13, %12 ], [ null, %8 ]
  %17 = load i32, ptr @hf_mapi_LogonId, align 4
  %18 = tail call i32 @PIDL_dissect_uint8(ptr noundef %0, i32 noundef %1, ptr noundef %2, ptr noundef %.044, ptr noundef %4, ptr noundef %5, i32 noundef %17, i32 noundef 0)
  %19 = load i32, ptr @hf_mapi_MoveFolder_req_WantAsynchronous, align 4
  %20 = tail call i32 @PIDL_dissect_uint8(ptr noundef %0, i32 noundef %18, ptr noundef %2, ptr noundef %.044, ptr noundef %4, ptr noundef %5, i32 noundef %19, i32 noundef 0)
  %21 = load i32, ptr @hf_mapi_MoveFolder_req_UseUnicode, align 4
  %22 = tail call i32 @PIDL_dissect_uint8(ptr noundef %0, i32 noundef %20, ptr noundef %2, ptr noundef %.044, ptr noundef %4, ptr noundef %5, i32 noundef %21, i32 noundef 0)
  %23 = load i32, ptr @hf_mapi_MoveFolder_req_FolderId, align 4
  %24 = tail call i32 @dissect_ndr_uint64(ptr noundef %0, i32 noundef %22, ptr noundef %2, ptr noundef %.044, ptr noundef %4, ptr noundef %5, i32 noundef %23, ptr noundef null)
  call void @llvm.lifetime.start.p0(i64 8, ptr nonnull %9) #6
  store ptr null, ptr %9, align 8
  %.not.i.i = icmp eq ptr %.044, null
  br i1 %.not.i.i, label %mapi_dissect_element_MoveFolder_req_NewFolderName.exit, label %25

25:                                               ; preds = %16
  %26 = load i32, ptr @ett_mapi_Folder_name, align 4
  %27 = call ptr @proto_tree_add_subtree(ptr noundef nonnull %.044, ptr noundef %0, i32 noundef %24, i32 noundef -1, i32 noundef %26, ptr noundef nonnull %9, ptr noundef nonnull @.str.6158)
  br label %mapi_dissect_element_MoveFolder_req_NewFolderName.exit

mapi_dissect_element_MoveFolder_req_NewFolderName.exit: ; preds = %25, %16
  %.021.i.i = phi ptr [ %27, %25 ], [ null, %16 ]
  %28 = load i32, ptr @hf_mapi_Folder_name_lpszA, align 4
  %29 = call i32 @dissect_null_term_string(ptr noundef %0, i32 noundef %24, ptr noundef %2, ptr noundef %.021.i.i, ptr noundef %5, i32 noundef %28, i32 noundef 0)
  %30 = load ptr, ptr %9, align 8
  %31 = sub i32 %29, %24
  call void @proto_item_set_len(ptr noundef %30, i32 noundef %31)
  call void @llvm.lifetime.end.p0(i64 8, ptr nonnull %9) #6
  %32 = sub i32 %29, %1
  call void @proto_item_set_len(ptr noundef %.0, i32 noundef %32)
  store i8 %11, ptr %10, align 2
  ret i32 %29
}